target datalayout = "e-m:e-p270:32:32-p271:32:32-p272:64:64-i64:64-i128:128-f80:128-n8:16:32:64-S128"
target triple = "x86_64-pc-linux-gnu"

%struct.AVFormatContext = type { ptr, ptr, ptr, ptr, ptr, i32, i32, ptr, i32, ptr, i32, ptr, ptr, i64, i64, i64, i32, i32, i32, i64, i64, ptr, i32, i32, ptr, i32, i32, i32, i32, ptr, i64, i32, i32, %struct.AVIOInterruptCB, i32, i32, i32, i32, i64, i32, i32, i32, i32, i32, i32, i32, i32, i32, i32, i32, i32, i64, i32, i32, i32, i32, i32, ptr, ptr, ptr, ptr, i32, ptr, ptr, ptr, ptr, i32, ptr, ptr, i64, ptr, ptr, ptr, i64 }
%struct.AVIOInterruptCB = type { ptr, ptr }
%struct.ASFContext = type { ptr, [128 x i32], [128 x %struct.ASFStream], [128 x i32], [128 x %struct.AVRational], [128 x [6 x i8]], i32, i64, i64, i64, i32, %struct.ASFMainHeader, i32, i32, i32, i32, i32, i32, i32, i32, i32, i32, i32, i64, i32, i32, i32, i64, i64, i32, ptr, i32, i32, i32 }
%struct.ASFStream = type { i32, i8, %struct.AVPacket, i32, i32, i32, i64, i32, i32, i32, i32, i32, i64, i16, i32, [256 x i32], i32, [8 x %struct.ASFPayload] }
%struct.AVPacket = type { ptr, i64, i64, ptr, i32, i32, i32, ptr, i32, i64, i64, ptr, ptr, %struct.AVRational }
%struct.AVRational = type { i32, i32 }
%struct.ASFPayload = type { i8, i16 }
%struct.ASFMainHeader = type { [16 x i8], i64, i64, i64, i64, i32, i32, i32, i32, i32, i32 }

@.str.26 = private unnamed_addr constant [13 x i8] c"AspectRatioX\00", align 1
@.str.27 = private unnamed_addr constant [13 x i8] c"AspectRatioY\00", align 1
@.str.28 = private unnamed_addr constant [48 x i8] c"%d stream %d name_len %2d type %d len %4d <%s>\0A\00", align 1

; Function Attrs: nounwind uwtable
define internal i32 @get_value(ptr noundef %0, i32 noundef %1, i32 noundef %2) #0 {
  %4 = alloca i32, align 4
  %5 = alloca ptr, align 8
  %6 = alloca i32, align 4
  %7 = alloca i32, align 4
  store ptr %0, ptr %5, align 8, !tbaa !33
  store i32 %1, ptr %6, align 4, !tbaa !34
  store i32 %2, ptr %7, align 4, !tbaa !34
  %8 = load i32, ptr %6, align 4, !tbaa !34
  switch i32 %8, label %30 [
    i32 2, label %9
    i32 3, label %20
    i32 4, label %23
    i32 5, label %27
  ]

9:                                                ; preds = %3
  %10 = load i32, ptr %7, align 4, !tbaa !34
  %11 = icmp eq i32 %10, 32
  br i1 %11, label %12, label %15

12:                                               ; preds = %9
  %13 = load ptr, ptr %5, align 8, !tbaa !33
  %14 = call i32 @avio_rl32(ptr noundef %13)
  br label %18

15:                                               ; preds = %9
  %16 = load ptr, ptr %5, align 8, !tbaa !33
  %17 = call i32 @avio_rl16(ptr noundef %16)
  br label %18

18:                                               ; preds = %15, %12
  %19 = phi i32 [ %14, %12 ], [ %17, %15 ]
  store i32 %19, ptr %4, align 4
  br label %31

20:                                               ; preds = %3
  %21 = load ptr, ptr %5, align 8, !tbaa !33
  %22 = call i32 @avio_rl32(ptr noundef %21)
  store i32 %22, ptr %4, align 4
  br label %31

23:                                               ; preds = %3
  %24 = load ptr, ptr %5, align 8, !tbaa !33
  %25 = call i64 @avio_rl64(ptr noundef %24)
  %26 = trunc i64 %25 to i32
  store i32 %26, ptr %4, align 4
  br label %31

27:                                               ; preds = %3
  %28 = load ptr, ptr %5, align 8, !tbaa !33
  %29 = call i32 @avio_rl16(ptr noundef %28)
  store i32 %29, ptr %4, align 4
  br label %31

30:                                               ; preds = %3
  store i32 -2147483648, ptr %4, align 4
  br label %31

31:                                               ; preds = %30, %27, %23, %20, %18
  %32 = load i32, ptr %4, align 4
  ret i32 %32
}

; Function Attrs: nounwind uwtable
define internal i32 @asf_read_metadata(ptr noundef %0) #0 {
  %2 = alloca i32, align 4
  %3 = alloca ptr, align 8
  %4 = alloca ptr, align 8
  %5 = alloca ptr, align 8
  %6 = alloca i32, align 4
  %7 = alloca i32, align 4
  %8 = alloca i32, align 4
  %9 = alloca i32, align 4
  %10 = alloca i32, align 4
  %11 = alloca i32, align 4
  %12 = alloca i32, align 4
  %13 = alloca ptr, align 8
  %14 = alloca i32, align 4
  %15 = alloca i32, align 4
  %16 = alloca i32, align 4
  %17 = alloca i32, align 4
  store ptr %0, ptr %3, align 8, !tbaa !13
  call void @llvm.lifetime.start.p0(i64 8, ptr %4) #11
  %18 = load ptr, ptr %3, align 8, !tbaa !13
  %19 = getelementptr inbounds nuw %struct.AVFormatContext, ptr %18, i32 0, i32 4
  %20 = load ptr, ptr %19, align 8, !tbaa !32
  store ptr %20, ptr %4, align 8, !tbaa !33
  call void @llvm.lifetime.start.p0(i64 8, ptr %5) #11
  %21 = load ptr, ptr %3, align 8, !tbaa !13
  %22 = getelementptr inbounds nuw %struct.AVFormatContext, ptr %21, i32 0, i32 3
  %23 = load ptr, ptr %22, align 8, !tbaa !15
  store ptr %23, ptr %5, align 8, !tbaa !30
  call void @llvm.lifetime.start.p0(i64 4, ptr %6) #11
  call void @llvm.lifetime.start.p0(i64 4, ptr %7) #11
  call void @llvm.lifetime.start.p0(i64 4, ptr %8) #11
  call void @llvm.lifetime.start.p0(i64 4, ptr %9) #11
  call void @llvm.lifetime.start.p0(i64 4, ptr %10) #11
  call void @llvm.lifetime.start.p0(i64 4, ptr %11) #11
  call void @llvm.lifetime.start.p0(i64 4, ptr %12) #11
  %24 = load ptr, ptr %4, align 8, !tbaa !33
  %25 = call i32 @avio_rl16(ptr noundef %24)
  store i32 %25, ptr %6, align 4, !tbaa !34
  store i32 0, ptr %12, align 4, !tbaa !34
  br label %26

26:                                               ; preds = %128, %1
  %27 = load i32, ptr %12, align 4, !tbaa !34
  %28 = load i32, ptr %6, align 4, !tbaa !34
  %29 = icmp slt i32 %27, %28
  br i1 %29, label %30, label %131

30:                                               ; preds = %26
  call void @llvm.lifetime.start.p0(i64 8, ptr %13) #11
  call void @llvm.lifetime.start.p0(i64 4, ptr %14) #11
  %31 = load ptr, ptr %4, align 8, !tbaa !33
  %32 = call i32 @avio_rl16(ptr noundef %31)
  %33 = load ptr, ptr %4, align 8, !tbaa !33
  %34 = call i32 @avio_rl16(ptr noundef %33)
  store i32 %34, ptr %7, align 4, !tbaa !34
  %35 = load ptr, ptr %4, align 8, !tbaa !33
  %36 = call i32 @avio_rl16(ptr noundef %35)
  store i32 %36, ptr %8, align 4, !tbaa !34
  %37 = load ptr, ptr %4, align 8, !tbaa !33
  %38 = call i32 @avio_rl16(ptr noundef %37)
  store i32 %38, ptr %14, align 4, !tbaa !34
  %39 = load ptr, ptr %4, align 8, !tbaa !33
  %40 = call i32 @avio_rl32(ptr noundef %39)
  store i32 %40, ptr %10, align 4, !tbaa !34
  %41 = load i32, ptr %10, align 4, !tbaa !34
  %42 = icmp uge i32 %41, 1073741812
  br i1 %42, label %43, label %44

43:                                               ; preds = %30
  store i32 -1094995529, ptr %2, align 4
  store i32 1, ptr %15, align 4
  br label %125

44:                                               ; preds = %30
  %45 = load i32, ptr %8, align 4, !tbaa !34
  %46 = mul nsw i32 2, %45
  %47 = add nsw i32 %46, 1
  store i32 %47, ptr %9, align 4, !tbaa !34
  %48 = load i32, ptr %9, align 4, !tbaa !34
  %49 = sext i32 %48 to i64
  %50 = call noalias ptr @av_malloc(i64 noundef %49)
  store ptr %50, ptr %13, align 8, !tbaa !76
  %51 = load ptr, ptr %13, align 8, !tbaa !76
  %52 = icmp ne ptr %51, null
  br i1 %52, label %54, label %53

53:                                               ; preds = %44
  store i32 -12, ptr %2, align 4
  store i32 1, ptr %15, align 4
  br label %125

54:                                               ; preds = %44
  %55 = load ptr, ptr %4, align 8, !tbaa !33
  %56 = load i32, ptr %8, align 4, !tbaa !34
  %57 = load ptr, ptr %13, align 8, !tbaa !76
  %58 = load i32, ptr %9, align 4, !tbaa !34
  %59 = call i32 @avio_get_str16le(ptr noundef %55, i32 noundef %56, ptr noundef %57, i32 noundef %58)
  store i32 %59, ptr %11, align 4, !tbaa !34
  %60 = load i32, ptr %8, align 4, !tbaa !34
  %61 = icmp slt i32 %59, %60
  br i1 %61, label %62, label %69

62:                                               ; preds = %54
  %63 = load ptr, ptr %4, align 8, !tbaa !33
  %64 = load i32, ptr %8, align 4, !tbaa !34
  %65 = load i32, ptr %11, align 4, !tbaa !34
  %66 = sub nsw i32 %64, %65
  %67 = sext i32 %66 to i64
  %68 = call i64 @avio_skip(ptr noundef %63, i64 noundef %67)
  br label %69

69:                                               ; preds = %62, %54
  %70 = load ptr, ptr %3, align 8, !tbaa !13
  %71 = load i32, ptr %12, align 4, !tbaa !34
  %72 = load i32, ptr %7, align 4, !tbaa !34
  %73 = load i32, ptr %8, align 4, !tbaa !34
  %74 = load i32, ptr %14, align 4, !tbaa !34
  %75 = load i32, ptr %10, align 4, !tbaa !34
  %76 = load ptr, ptr %13, align 8, !tbaa !76
  call void (ptr, i32, ptr, ...) @av_log(ptr noundef %70, i32 noundef 56, ptr noundef @.str.28, i32 noundef %71, i32 noundef %72, i32 noundef %73, i32 noundef %74, i32 noundef %75, ptr noundef %76)
  %77 = load ptr, ptr %13, align 8, !tbaa !76
  %78 = call i32 @strcmp(ptr noundef %77, ptr noundef @.str.26) #12
  %79 = icmp ne i32 %78, 0
  br i1 %79, label %97, label %80

80:                                               ; preds = %69
  call void @llvm.lifetime.start.p0(i64 4, ptr %16) #11
  %81 = load ptr, ptr %3, align 8, !tbaa !13
  %82 = getelementptr inbounds nuw %struct.AVFormatContext, ptr %81, i32 0, i32 4
  %83 = load ptr, ptr %82, align 8, !tbaa !32
  %84 = load i32, ptr %14, align 4, !tbaa !34
  %85 = call i32 @get_value(ptr noundef %83, i32 noundef %84, i32 noundef 16)
  store i32 %85, ptr %16, align 4, !tbaa !34
  %86 = load i32, ptr %7, align 4, !tbaa !34
  %87 = icmp slt i32 %86, 128
  br i1 %87, label %88, label %96

88:                                               ; preds = %80
  %89 = load i32, ptr %16, align 4, !tbaa !34
  %90 = load ptr, ptr %5, align 8, !tbaa !30
  %91 = getelementptr inbounds nuw %struct.ASFContext, ptr %90, i32 0, i32 4
  %92 = load i32, ptr %7, align 4, !tbaa !34
  %93 = sext i32 %92 to i64
  %94 = getelementptr inbounds [128 x %struct.AVRational], ptr %91, i64 0, i64 %93
  %95 = getelementptr inbounds nuw %struct.AVRational, ptr %94, i32 0, i32 0
  store i32 %89, ptr %95, align 8, !tbaa !71
  br label %96

96:                                               ; preds = %88, %80
  call void @llvm.lifetime.end.p0(i64 4, ptr %16) #11
  br label %124

97:                                               ; preds = %69
  %98 = load ptr, ptr %13, align 8, !tbaa !76
  %99 = call i32 @strcmp(ptr noundef %98, ptr noundef @.str.27) #12
  %100 = icmp ne i32 %99, 0
  br i1 %100, label %118, label %101

101:                                              ; preds = %97
  call void @llvm.lifetime.start.p0(i64 4, ptr %17) #11
  %102 = load ptr, ptr %3, align 8, !tbaa !13
  %103 = getelementptr inbounds nuw %struct.AVFormatContext, ptr %102, i32 0, i32 4
  %104 = load ptr, ptr %103, align 8, !tbaa !32
  %105 = load i32, ptr %14, align 4, !tbaa !34
  %106 = call i32 @get_value(ptr noundef %104, i32 noundef %105, i32 noundef 16)
  store i32 %106, ptr %17, align 4, !tbaa !34
  %107 = load i32, ptr %7, align 4, !tbaa !34
  %108 = icmp slt i32 %107, 128
  br i1 %108, label %109, label %117

109:                                              ; preds = %101
  %110 = load i32, ptr %17, align 4, !tbaa !34
  %111 = load ptr, ptr %5, align 8, !tbaa !30
  %112 = getelementptr inbounds nuw %struct.ASFContext, ptr %111, i32 0, i32 4
  %113 = load i32, ptr %7, align 4, !tbaa !34
  %114 = sext i32 %113 to i64
  %115 = getelementptr inbounds [128 x %struct.AVRational], ptr %112, i64 0, i64 %114
  %116 = getelementptr inbounds nuw %struct.AVRational, ptr %115, i32 0, i32 1
  store i32 %110, ptr %116, align 4, !tbaa !72
  br label %117

117:                                              ; preds = %109, %101
  call void @llvm.lifetime.end.p0(i64 4, ptr %17) #11
  br label %123

118:                                              ; preds = %97
  %119 = load ptr, ptr %3, align 8, !tbaa !13
  %120 = load ptr, ptr %13, align 8, !tbaa !76
  %121 = load i32, ptr %14, align 4, !tbaa !34
  %122 = load i32, ptr %10, align 4, !tbaa !34
  call void @get_tag(ptr noundef %119, ptr noundef %120, i32 noundef %121, i32 noundef %122, i32 noundef 16)
  br label %123

123:                                              ; preds = %118, %117
  br label %124

124:                                              ; preds = %123, %96
  call void @av_freep(ptr noundef %13)
  store i32 0, ptr %15, align 4
  br label %125

125:                                              ; preds = %124, %53, %43
  call void @llvm.lifetime.end.p0(i64 4, ptr %14) #11
  call void @llvm.lifetime.end.p0(i64 8, ptr %13) #11
  %126 = load i32, ptr %15, align 4
  switch i32 %126, label %132 [
    i32 0, label %127
  ]

127:                                              ; preds = %125
  br label %128

128:                                              ; preds = %127
  %129 = load i32, ptr %12, align 4, !tbaa !34
  %130 = add nsw i32 %129, 1
  store i32 %130, ptr %12, align 4, !tbaa !34
  br label %26, !llvm.loop !136

131:                                              ; preds = %26
  store i32 0, ptr %2, align 4
  store i32 1, ptr %15, align 4
  br label %132

132:                                              ; preds = %131, %125
  call void @llvm.lifetime.end.p0(i64 4, ptr %12) #11
  call void @llvm.lifetime.end.p0(i64 4, ptr %11) #11
  call void @llvm.lifetime.end.p0(i64 4, ptr %10) #11
  call void @llvm.lifetime.end.p0(i64 4, ptr %9) #11
  call void @llvm.lifetime.end.p0(i64 4, ptr %8) #11
  call void @llvm.lifetime.end.p0(i64 4, ptr %7) #11
  call void @llvm.lifetime.end.p0(i64 4, ptr %6) #11
  call void @llvm.lifetime.end.p0(i64 8, ptr %5) #11
  call void @llvm.lifetime.end.p0(i64 8, ptr %4) #11
  %133 = load i32, ptr %2, align 4
  ret i32 %133
}