; Function Attrs: nounwind uwtable
define internal fastcc void @asf_read_metadata(ptr noundef %0) unnamed_addr #1 {
  %2 = alloca ptr, align 8
  %3 = getelementptr inbounds nuw i8, ptr %0, i64 32
  %4 = load ptr, ptr %3, align 8, !tbaa !26
  %5 = getelementptr inbounds nuw i8, ptr %0, i64 24
  %6 = load ptr, ptr %5, align 8, !tbaa !11
  %7 = tail call i32 @avio_rl16(ptr noundef %4) #14
  %8 = icmp sgt i32 %7, 0
  br i1 %8, label %.lr.ph, label %.loopexit

.lr.ph:                                           ; preds = %1
  %9 = getelementptr i8, ptr %6, i64 159756
  %10 = getelementptr inbounds nuw i8, ptr %6, i64 159752
  br label %11

11:                                               ; preds = %.lr.ph, %67
  %.04357 = phi i32 [ 0, %.lr.ph ], [ %68, %67 ]
  call void @llvm.lifetime.start.p0(i64 8, ptr nonnull %2) #14
  %12 = call i32 @avio_rl16(ptr noundef %4) #14
  %13 = call i32 @avio_rl16(ptr noundef %4) #14
  %14 = call i32 @avio_rl16(ptr noundef %4) #14
  %15 = call i32 @avio_rl16(ptr noundef %4) #14
  %16 = call i32 @avio_rl32(ptr noundef %4) #14
  %17 = icmp ugt i32 %16, 1073741811
  br i1 %17, label %.thread, label %18

18:                                               ; preds = %11
  %19 = shl nsw i32 %14, 1
  %20 = or disjoint i32 %19, 1
  %21 = sext i32 %20 to i64
  %22 = call noalias ptr @av_malloc(i64 noundef %21) #14
  store ptr %22, ptr %2, align 8, !tbaa !156
  %.not = icmp eq ptr %22, null
  br i1 %.not, label %.thread, label %23

23:                                               ; preds = %18
  %24 = call i32 @avio_get_str16le(ptr noundef %4, i32 noundef %14, ptr noundef nonnull %22, i32 noundef %20) #14
  %25 = icmp slt i32 %24, %14
  br i1 %25, label %26, label %30

26:                                               ; preds = %23
  %27 = sub nsw i32 %14, %24
  %28 = sext i32 %27 to i64
  %29 = call i64 @avio_skip(ptr noundef %4, i64 noundef %28) #14
  br label %30

30:                                               ; preds = %26, %23
  %31 = load ptr, ptr %2, align 8, !tbaa !156
  call void (ptr, i32, ptr, ...) @av_log(ptr noundef %0, i32 noundef 56, ptr noundef nonnull @.str.28, i32 noundef %.04357, i32 noundef %13, i32 noundef %14, i32 noundef %15, i32 noundef %16, ptr noundef %31) #14
  %32 = load ptr, ptr %2, align 8, !tbaa !156
  %33 = call i32 @strcmp(ptr noundef nonnull dereferenceable(1) %32, ptr noundef nonnull dereferenceable(13) @.str.26) #15
  %.not51 = icmp eq i32 %33, 0
  br i1 %.not51, label %34, label %49

34:                                               ; preds = %30
  %35 = load ptr, ptr %3, align 8, !tbaa !26
  switch i32 %15, label %get_value.exit [
    i32 2, label %36
    i32 3, label %38
    i32 4, label %40
    i32 5, label %43
  ]

36:                                               ; preds = %34
  %37 = call i32 @avio_rl16(ptr noundef %35) #14
  br label %get_value.exit

38:                                               ; preds = %34
  %39 = call i32 @avio_rl32(ptr noundef %35) #14
  br label %get_value.exit

40:                                               ; preds = %34
  %41 = call i64 @avio_rl64(ptr noundef %35) #14
  %42 = trunc i64 %41 to i32
  br label %get_value.exit

43:                                               ; preds = %34
  %44 = call i32 @avio_rl16(ptr noundef %35) #14
  br label %get_value.exit

get_value.exit:                                   ; preds = %34, %36, %38, %40, %43
  %.0.i = phi i32 [ %44, %43 ], [ %42, %40 ], [ %39, %38 ], [ %37, %36 ], [ -2147483648, %34 ]
  %45 = icmp slt i32 %13, 128
  br i1 %45, label %46, label %67

46:                                               ; preds = %get_value.exit
  %47 = sext i32 %13 to i64
  %48 = getelementptr inbounds [128 x %struct.AVRational], ptr %10, i64 0, i64 %47
  store i32 %.0.i, ptr %48, align 8, !tbaa !87
  br label %67

49:                                               ; preds = %30
  %50 = call i32 @strcmp(ptr noundef nonnull dereferenceable(1) %32, ptr noundef nonnull dereferenceable(13) @.str.27) #15
  %.not52 = icmp eq i32 %50, 0
  br i1 %.not52, label %51, label %66

51:                                               ; preds = %49
  %52 = load ptr, ptr %3, align 8, !tbaa !26
  switch i32 %15, label %get_value.exit54 [
    i32 2, label %53
    i32 3, label %55
    i32 4, label %57
    i32 5, label %60
  ]

53:                                               ; preds = %51
  %54 = call i32 @avio_rl16(ptr noundef %52) #14
  br label %get_value.exit54

55:                                               ; preds = %51
  %56 = call i32 @avio_rl32(ptr noundef %52) #14
  br label %get_value.exit54

57:                                               ; preds = %51
  %58 = call i64 @avio_rl64(ptr noundef %52) #14
  %59 = trunc i64 %58 to i32
  br label %get_value.exit54

60:                                               ; preds = %51
  %61 = call i32 @avio_rl16(ptr noundef %52) #14
  br label %get_value.exit54

get_value.exit54:                                 ; preds = %51, %53, %55, %57, %60
  %.0.i53 = phi i32 [ %61, %60 ], [ %59, %57 ], [ %56, %55 ], [ %54, %53 ], [ -2147483648, %51 ]
  %62 = icmp slt i32 %13, 128
  br i1 %62, label %63, label %67

63:                                               ; preds = %get_value.exit54
  %64 = sext i32 %13 to i64
  %.idx = shl nsw i64 %64, 3
  %65 = getelementptr i8, ptr %9, i64 %.idx
  store i32 %.0.i53, ptr %65, align 4, !tbaa !88
  br label %67

66:                                               ; preds = %49
  call fastcc void @get_tag(ptr noundef %0, ptr noundef nonnull %32, i32 noundef %15, i32 noundef %16, i32 noundef 16)
  br label %67

.thread:                                          ; preds = %11, %18
  call void @llvm.lifetime.end.p0(i64 8, ptr nonnull %2) #14
  br label %.loopexit

67:                                               ; preds = %get_value.exit54, %63, %get_value.exit, %46, %66
  call void @av_freep(ptr noundef nonnull %2) #14
  call void @llvm.lifetime.end.p0(i64 8, ptr nonnull %2) #14
  %68 = add nuw nsw i32 %.04357, 1
  %exitcond.not = icmp eq i32 %68, %7
  br i1 %exitcond.not, label %.loopexit, label %11, !llvm.loop !178

.loopexit:                                        ; preds = %67, %1, %.thread
  ret void
}